target datalayout = "e-m:e-p270:32:32-p271:32:32-p272:64:64-i64:64-i128:128-f80:128-n8:16:32:64-S128"
target triple = "x86_64-pc-linux-gnu"

%struct.DHT = type { i32, i32, ptr, [3 x i16], [3 x float], ptr, ptr }
%class.LibRaw = type { ptr, %struct.libraw_data_t, ptr, %struct.libraw_internal_data_t, [2048 x %struct.decode], ptr, ptr, [10 x %struct.tiff_ifd_t], %class.libraw_memmgr, %struct.libraw_callbacks_t, { i64, i64 }, { i64, i64 }, { i64, i64 }, ptr, ptr, ptr, i64, ptr, ptr, ptr, ptr }
%struct.libraw_data_t = type { ptr, %struct.libraw_image_sizes_t, %struct.libraw_iparams_t, %struct.libraw_lensinfo_t, %struct.libraw_makernotes_t, %struct.libraw_shootinginfo_t, %struct.libraw_output_params_t, %struct.libraw_raw_unpack_params_t, i32, i32, %struct.libraw_colordata_t, %struct.libraw_imgother_t, %struct.libraw_thumbnail_t, %struct.libraw_thumbnail_list_t, %struct.libraw_rawdata_t, ptr }
%struct.libraw_image_sizes_t = type { i16, i16, i16, i16, i16, i16, i16, i16, i32, double, i32, [8 x [4 x i32]], i16, [2 x %struct.libraw_raw_inset_crop_t] }
%struct.libraw_raw_inset_crop_t = type { i16, i16, i16, i16 }
%struct.libraw_iparams_t = type { [4 x i8], [64 x i8], [64 x i8], [64 x i8], [64 x i8], [64 x i8], i32, i32, i32, i32, i32, i32, [6 x [6 x i8]], [6 x [6 x i8]], [5 x i8], i32, ptr }
%struct.libraw_lensinfo_t = type { float, float, float, float, float, [128 x i8], [128 x i8], [128 x i8], [128 x i8], i16, %struct.libraw_nikonlens_t, %struct.libraw_dnglens_t, %struct.libraw_makernotes_lens_t }
%struct.libraw_nikonlens_t = type { float, i8, i8, i8, i8 }
%struct.libraw_dnglens_t = type { float, float, float, float }
%struct.libraw_makernotes_lens_t = type { i64, [128 x i8], i16, i16, i64, i16, i16, [64 x i8], i16, [16 x i8], [16 x i8], float, float, float, float, float, float, float, float, float, float, float, float, float, float, float, i64, [128 x i8], i64, [128 x i8], i64, [128 x i8], i16, float }
%struct.libraw_makernotes_t = type { %struct.libraw_canon_makernotes_t, %struct.libraw_nikon_makernotes_t, %struct.libraw_hasselblad_makernotes_t, %struct.libraw_fuji_info_t, %struct.libraw_olympus_makernotes_t, %struct.libraw_sony_info_t, %struct.libraw_kodak_makernotes_t, %struct.libraw_panasonic_makernotes_t, %struct.libraw_pentax_makernotes_t, %struct.libraw_p1_makernotes_t, %struct.libraw_ricoh_makernotes_t, %struct.libraw_samsung_makernotes_t, %struct.libraw_metadata_common_t }
%struct.libraw_canon_makernotes_t = type { i32, i32, i32, i32, [4 x i32], i32, [4 x i32], i16, i16, i8, i16, i16, i16, i16, i16, i16, i16, i16, i16, i16, i16, i16, i16, i32, float, i16, i16, i16, i32, i16, i32, i32, i16, i32, %struct.libraw_area_t, %struct.libraw_area_t, %struct.libraw_area_t, %struct.libraw_area_t, %struct.libraw_area_t, [2 x i16] }
%struct.libraw_area_t = type { i16, i16, i16, i16 }
%struct.libraw_nikon_makernotes_t = type { double, i16, i16, [7 x i8], i8, i8, [13 x i8], [20 x i8], [4 x i8], [4 x i8], [4 x i8], i8, i8, i8, i8, i8, [2 x i8], i8, i8, i8, i8, i8, [4 x i8], [4 x i8], i8, i16, i32, i32, i32, i32, [4 x double], i8, i8, i8, i32, i32, i32, i8, [4 x i16], i16, %struct.libraw_sensor_highspeed_crop_t, i16, i16, i16, i32, [20 x i8], [20 x i8], i32, i16, double, double, double }
%struct.libraw_sensor_highspeed_crop_t = type { i16, i16, i16, i16 }
%struct.libraw_hasselblad_makernotes_t = type { i32, double, [8 x i8], [64 x i8], [64 x i8], i32, i32, i32, i32, [32 x i8], [64 x i8], i32, [2 x i32], [2 x i32], [4 x [3 x double]] }
%struct.libraw_fuji_info_t = type { float, i16, i16, i16, i16, i16, i16, i16, i16, [33 x i8], [33 x i8], float, i16, i16, [2 x i16], i16, i32, i32, i16, [3 x i16], i16, i16, i16, i16, i16, i32, i16, [13 x i8], [5 x i8], [5 x i8], i32, i16, i32, i16, [9 x i16], [32 x i32], i32, i32, i32, [2 x float], i32 }
%struct.libraw_olympus_makernotes_t = type { [6 x i8], i16, [2 x i32], [5 x i16], i16, [2 x i16], i16, i16, [64 x i32], [5 x double], i16, i8, [3 x i16], [3 x i32], i16, i16, i16, i16, double, [4 x i16], [2 x i32], i8, i32, i16, i16 }
%struct.libraw_sony_info_t = type { i16, i8, i8, i32, i8, i32, i8, i8, i16, [2 x i16], i8, i8, i16, [10 x i8], i8, i8, [4 x i16], i16, i8, i8, i8, i16, i32, i16, [2 x i16], i16, i16, i16, i16, i16, i16, i16, i32, float, i16, i32, i32, i16, [20 x i8], i32, i16, i32, i8, i8, i16, i16, i16, i16, i16, i16, i16, i16, i16, i32, i16, [16 x i8], float }
%struct.libraw_kodak_makernotes_t = type { i16, i16, i16, i16, i16, i16, [3 x [3 x float]], [3 x [3 x float]], [3 x [3 x float]], [3 x [3 x float]], [3 x [3 x float]], [3 x [3 x float]], i16, i16, i16, i16, float, float }
%struct.libraw_panasonic_makernotes_t = type { i16, i16, [8 x float], i32, float, [3 x i32], i16, i16, i32, i32 }
%struct.libraw_pentax_makernotes_t = type { [4 x i8], [2 x i16], [2 x i16], i16, i32, i32, i16, i16, i8, i8, i16 }
%struct.libraw_p1_makernotes_t = type { [64 x i8], [64 x i8], [256 x i8], [64 x i8] }
%struct.libraw_ricoh_makernotes_t = type { i16, [2 x i32], [2 x i32], i16, i32, i32, i32, i32, i16, i16, i16, i16, i16, i16, double, double }
%struct.libraw_samsung_makernotes_t = type { [4 x i32], [4 x i32], [2 x i32], [11 x i32], double, i32, [32 x i8] }
%struct.libraw_metadata_common_t = type { float, float, float, float, float, float, float, float, float, float, float, float, float, float, float, float, i16, [128 x i8], float, [4 x %struct.libraw_afinfo_item_t], i32 }
%struct.libraw_afinfo_item_t = type { i32, i16, i32, i32, ptr }
%struct.libraw_shootinginfo_t = type { i16, i16, i16, i16, i16, i16, i16, [64 x i8], [64 x i8] }
%struct.libraw_output_params_t = type { [4 x i32], [4 x i32], [4 x double], [6 x double], [4 x float], float, float, i32, i32, i32, i32, i32, i32, i32, ptr, ptr, ptr, ptr, i32, i32, i32, i32, i32, i32, [4 x i32], i32, i32, float, float, i32, i32, i32, i32, i32, i32, i32, i32, float, float, i32, i32 }
%struct.libraw_raw_unpack_params_t = type { i32, i32, i32, i32, i32, i32, i32, float, [5 x i8], ptr }
%struct.libraw_colordata_t = type { [65536 x i16], [4104 x i32], i32, i32, i32, [4 x i64], float, float, [8 x [8 x i16]], [4 x float], [4 x float], [3 x [4 x float]], [3 x [4 x float]], [3 x [4 x float]], [4 x [3 x float]], %struct.ph1_t, float, float, [64 x i8], [64 x i8], [64 x i8], [64 x i8], [17 x i8], [64 x i8], ptr, i32, [8 x i32], [2 x %struct.libraw_dng_color_t], %struct.libraw_dng_levels_t, [256 x [4 x i32]], [64 x [5 x float]], i32, [2 x %struct.libraw_P1_color_t], i32, i32 }
%struct.ph1_t = type { i32, i32, i32, i32, i32, i32, i32, i32, float }
%struct.libraw_dng_color_t = type { i32, i16, [4 x [4 x float]], [4 x [3 x float]], [3 x [4 x float]] }
%struct.libraw_dng_levels_t = type { i32, [4104 x i32], i32, [4104 x float], float, [4 x i32], [4 x i16], [4 x float], i32, [4 x float], [4 x float], float, float }
%struct.libraw_P1_color_t = type { [9 x float] }
%struct.libraw_imgother_t = type { float, float, float, float, i64, i32, [32 x i32], %struct.libraw_gps_info_t, [512 x i8], [64 x i8], [4 x float] }
%struct.libraw_gps_info_t = type { [3 x float], [3 x float], [3 x float], float, i8, i8, i8, i8, i8 }
%struct.libraw_thumbnail_t = type { i32, i16, i16, i32, i32, ptr }
%struct.libraw_thumbnail_list_t = type { i32, [8 x %struct.libraw_thumbnail_item_t] }
%struct.libraw_thumbnail_item_t = type { i32, i16, i16, i16, i32, i32, i64 }
%struct.libraw_rawdata_t = type { ptr, ptr, ptr, ptr, ptr, ptr, ptr, ptr, ptr, %struct.libraw_iparams_t, %struct.libraw_image_sizes_t, %struct.libraw_internal_output_params_t, %struct.libraw_colordata_t }
%struct.libraw_internal_output_params_t = type { i32, i32, i32, i16, i16 }
%struct.libraw_internal_data_t = type { %struct.internal_data_t, %struct.libraw_internal_output_params_t, %struct.output_data_t, %struct.identify_data_t, %struct.unpacker_data_t }
%struct.internal_data_t = type { ptr, ptr, i32, ptr, i64, i64, [4 x i32] }
%struct.output_data_t = type { ptr, ptr }
%struct.identify_data_t = type { i32, i64, i64, i32, i32, i32 }
%struct.unpacker_data_t = type { i16, [4 x i16], [3 x i16], i32, i64, i64, i64, i64, i64, i64, i32, i32, i32, i32, i32, i32, i32, i32, i32, i32, i32, i32, i32, i32, i32, i32, i32, i64, i32, i32, i32, i32, i32, i32, i32, i32, i32, %struct.pana8_tags_t, [16 x %struct.crx_data_header_t], i32, i32, i16, i16, i32, i32, i32, i32, i32, i32, i32, [20 x i32], i16 }
%struct.pana8_tags_t = type { [6 x i32], [6 x i16], i16, [4 x i16], [17 x i16], [17 x i16], [17 x i16], i16, i16, [5 x i64], [5 x i16], [5 x i32], [5 x i16], [5 x i16] }
%struct.crx_data_header_t = type { i32, i32, i32, i32, i32, i32, i32, i32, i32, i32, i32, i32, i32, i32, i32, i64, i32, ptr, i32, i32, i32, ptr, i32, ptr }
%struct.decode = type { [2 x ptr], i32 }
%struct.tiff_ifd_t = type { i32, i32, i32, i32, i32, i32, i32, i32, i32, i32, i32, i32, i32, i32, i32, ptr, i32, ptr, i32, i32, i32, i32, i32, i32, i32, float, i64, i64, i32, [2 x %struct.libraw_dng_color_t], %struct.libraw_dng_levels_t, i32 }
%class.libraw_memmgr = type <{ ptr, i32, [4 x i8] }>
%struct.libraw_callbacks_t = type { ptr, ptr, ptr, ptr, ptr, ptr, ptr, ptr, ptr, ptr, ptr, ptr, ptr, ptr, ptr, ptr, ptr }

; Function Attrs: inlinehint mustprogress nounwind uwtable
define linkonce_odr noundef i32 @_ZN3DHT9nr_offsetEii(ptr noundef nonnull align 8 dereferenceable(56) %0, i32 noundef %1, i32 noundef %2) #4 comdat align 2 {
  %4 = alloca ptr, align 8
  %5 = alloca i32, align 4
  %6 = alloca i32, align 4
  store ptr %0, ptr %4, align 8, !tbaa !6
  store i32 %1, ptr %5, align 4, !tbaa !81
  store i32 %2, ptr %6, align 4, !tbaa !81
  %7 = load ptr, ptr %4, align 8
  %8 = load i32, ptr %5, align 4, !tbaa !81
  %9 = getelementptr inbounds nuw %struct.DHT, ptr %7, i32 0, i32 1
  %10 = load i32, ptr %9, align 4, !tbaa !79
  %11 = mul nsw i32 %8, %10
  %12 = load i32, ptr %6, align 4, !tbaa !81
  %13 = add nsw i32 %11, %12
  ret i32 %13
}

; Function Attrs: mustprogress nounwind uwtable
define void @_ZN3DHT16illustrate_dlineEi(ptr noundef nonnull align 8 dereferenceable(56) %0, i32 noundef %1) #5 align 2 {
  %3 = alloca ptr, align 8
  %4 = alloca i32, align 4
  %5 = alloca i32, align 4
  %6 = alloca i32, align 4
  %7 = alloca i32, align 4
  %8 = alloca i32, align 4
  %9 = alloca i32, align 4
  store ptr %0, ptr %3, align 8, !tbaa !6
  store i32 %1, ptr %4, align 4, !tbaa !81
  %10 = load ptr, ptr %3, align 8
  call void @llvm.lifetime.start.p0(i64 4, ptr %5) #11
  %11 = getelementptr inbounds nuw %struct.DHT, ptr %10, i32 0, i32 5
  %12 = load ptr, ptr %11, align 8, !tbaa !13
  %13 = getelementptr inbounds nuw %class.LibRaw, ptr %12, i32 0, i32 1
  %14 = getelementptr inbounds nuw %struct.libraw_data_t, ptr %13, i32 0, i32 1
  %15 = getelementptr inbounds nuw %struct.libraw_image_sizes_t, ptr %14, i32 0, i32 7
  %16 = load i16, ptr %15, align 2, !tbaa !78
  %17 = zext i16 %16 to i32
  store i32 %17, ptr %5, align 4, !tbaa !81
  call void @llvm.lifetime.start.p0(i64 4, ptr %6) #11
  store i32 0, ptr %6, align 4, !tbaa !81
  br label %18

18:                                               ; preds = %120, %2
  %19 = load i32, ptr %6, align 4, !tbaa !81
  %20 = load i32, ptr %5, align 4, !tbaa !81
  %21 = icmp slt i32 %19, %20
  br i1 %21, label %23, label %22

22:                                               ; preds = %18
  call void @llvm.lifetime.end.p0(i64 4, ptr %6) #11
  br label %123

23:                                               ; preds = %18
  call void @llvm.lifetime.start.p0(i64 4, ptr %7) #11
  %24 = load i32, ptr %6, align 4, !tbaa !81
  %25 = add nsw i32 %24, 4
  store i32 %25, ptr %7, align 4, !tbaa !81
  call void @llvm.lifetime.start.p0(i64 4, ptr %8) #11
  %26 = load i32, ptr %4, align 4, !tbaa !81
  %27 = add nsw i32 %26, 4
  store i32 %27, ptr %8, align 4, !tbaa !81
  %28 = getelementptr inbounds nuw %struct.DHT, ptr %10, i32 0, i32 2
  %29 = load ptr, ptr %28, align 8, !tbaa !80
  %30 = load i32, ptr %8, align 4, !tbaa !81
  %31 = load i32, ptr %7, align 4, !tbaa !81
  %32 = call noundef i32 @_ZN3DHT9nr_offsetEii(ptr noundef nonnull align 8 dereferenceable(56) %10, i32 noundef %30, i32 noundef %31) #11
  %33 = sext i32 %32 to i64
  %34 = getelementptr inbounds [3 x float], ptr %29, i64 %33
  %35 = getelementptr inbounds [3 x float], ptr %34, i64 0, i64 2
  store float 5.000000e-01, ptr %35, align 4, !tbaa !85
  %36 = getelementptr inbounds nuw %struct.DHT, ptr %10, i32 0, i32 2
  %37 = load ptr, ptr %36, align 8, !tbaa !80
  %38 = load i32, ptr %8, align 4, !tbaa !81
  %39 = load i32, ptr %7, align 4, !tbaa !81
  %40 = call noundef i32 @_ZN3DHT9nr_offsetEii(ptr noundef nonnull align 8 dereferenceable(56) %10, i32 noundef %38, i32 noundef %39) #11
  %41 = sext i32 %40 to i64
  %42 = getelementptr inbounds [3 x float], ptr %37, i64 %41
  %43 = getelementptr inbounds [3 x float], ptr %42, i64 0, i64 1
  store float 5.000000e-01, ptr %43, align 4, !tbaa !85
  %44 = getelementptr inbounds nuw %struct.DHT, ptr %10, i32 0, i32 2
  %45 = load ptr, ptr %44, align 8, !tbaa !80
  %46 = load i32, ptr %8, align 4, !tbaa !81
  %47 = load i32, ptr %7, align 4, !tbaa !81
  %48 = call noundef i32 @_ZN3DHT9nr_offsetEii(ptr noundef nonnull align 8 dereferenceable(56) %10, i32 noundef %46, i32 noundef %47) #11
  %49 = sext i32 %48 to i64
  %50 = getelementptr inbounds [3 x float], ptr %45, i64 %49
  %51 = getelementptr inbounds [3 x float], ptr %50, i64 0, i64 0
  store float 5.000000e-01, ptr %51, align 4, !tbaa !85
  call void @llvm.lifetime.start.p0(i64 4, ptr %9) #11
  %52 = getelementptr inbounds nuw %struct.DHT, ptr %10, i32 0, i32 6
  %53 = load ptr, ptr %52, align 8, !tbaa !82
  %54 = load i32, ptr %8, align 4, !tbaa !81
  %55 = load i32, ptr %7, align 4, !tbaa !81
  %56 = call noundef i32 @_ZN3DHT9nr_offsetEii(ptr noundef nonnull align 8 dereferenceable(56) %10, i32 noundef %54, i32 noundef %55) #11
  %57 = sext i32 %56 to i64
  %58 = getelementptr inbounds i8, ptr %53, i64 %57
  %59 = load i8, ptr %58, align 1, !tbaa !95
  %60 = sext i8 %59 to i32
  %61 = and i32 %60, 8
  store i32 %61, ptr %9, align 4, !tbaa !81
  store i32 1, ptr %9, align 4, !tbaa !81
  %62 = getelementptr inbounds nuw %struct.DHT, ptr %10, i32 0, i32 6
  %63 = load ptr, ptr %62, align 8, !tbaa !82
  %64 = load i32, ptr %8, align 4, !tbaa !81
  %65 = load i32, ptr %7, align 4, !tbaa !81
  %66 = call noundef i32 @_ZN3DHT9nr_offsetEii(ptr noundef nonnull align 8 dereferenceable(56) %10, i32 noundef %64, i32 noundef %65) #11
  %67 = sext i32 %66 to i64
  %68 = getelementptr inbounds i8, ptr %63, i64 %67
  %69 = load i8, ptr %68, align 1, !tbaa !95
  %70 = sext i8 %69 to i32
  %71 = and i32 %70, 64
  %72 = icmp ne i32 %71, 0
  br i1 %72, label %73, label %96

73:                                               ; preds = %23
  %74 = load i32, ptr %9, align 4, !tbaa !81
  %75 = getelementptr inbounds nuw %struct.DHT, ptr %10, i32 0, i32 3
  %76 = getelementptr inbounds [3 x i16], ptr %75, i64 0, i64 0
  %77 = load i16, ptr %76, align 8, !tbaa !83
  %78 = zext i16 %77 to i32
  %79 = mul nsw i32 %74, %78
  %80 = sdiv i32 %79, 4
  %81 = getelementptr inbounds nuw %struct.DHT, ptr %10, i32 0, i32 3
  %82 = getelementptr inbounds [3 x i16], ptr %81, i64 0, i64 0
  %83 = load i16, ptr %82, align 8, !tbaa !83
  %84 = zext i16 %83 to i32
  %85 = sdiv i32 %84, 4
  %86 = add nsw i32 %80, %85
  %87 = sitofp i32 %86 to float
  %88 = getelementptr inbounds nuw %struct.DHT, ptr %10, i32 0, i32 2
  %89 = load ptr, ptr %88, align 8, !tbaa !80
  %90 = load i32, ptr %8, align 4, !tbaa !81
  %91 = load i32, ptr %7, align 4, !tbaa !81
  %92 = call noundef i32 @_ZN3DHT9nr_offsetEii(ptr noundef nonnull align 8 dereferenceable(56) %10, i32 noundef %90, i32 noundef %91) #11
  %93 = sext i32 %92 to i64
  %94 = getelementptr inbounds [3 x float], ptr %89, i64 %93
  %95 = getelementptr inbounds [3 x float], ptr %94, i64 0, i64 0
  store float %87, ptr %95, align 4, !tbaa !85
  br label %119

96:                                               ; preds = %23
  %97 = load i32, ptr %9, align 4, !tbaa !81
  %98 = getelementptr inbounds nuw %struct.DHT, ptr %10, i32 0, i32 3
  %99 = getelementptr inbounds [3 x i16], ptr %98, i64 0, i64 2
  %100 = load i16, ptr %99, align 4, !tbaa !83
  %101 = zext i16 %100 to i32
  %102 = mul nsw i32 %97, %101
  %103 = sdiv i32 %102, 4
  %104 = getelementptr inbounds nuw %struct.DHT, ptr %10, i32 0, i32 3
  %105 = getelementptr inbounds [3 x i16], ptr %104, i64 0, i64 2
  %106 = load i16, ptr %105, align 4, !tbaa !83
  %107 = zext i16 %106 to i32
  %108 = sdiv i32 %107, 4
  %109 = add nsw i32 %103, %108
  %110 = sitofp i32 %109 to float
  %111 = getelementptr inbounds nuw %struct.DHT, ptr %10, i32 0, i32 2
  %112 = load ptr, ptr %111, align 8, !tbaa !80
  %113 = load i32, ptr %8, align 4, !tbaa !81
  %114 = load i32, ptr %7, align 4, !tbaa !81
  %115 = call noundef i32 @_ZN3DHT9nr_offsetEii(ptr noundef nonnull align 8 dereferenceable(56) %10, i32 noundef %113, i32 noundef %114) #11
  %116 = sext i32 %115 to i64
  %117 = getelementptr inbounds [3 x float], ptr %112, i64 %116
  %118 = getelementptr inbounds [3 x float], ptr %117, i64 0, i64 2
  store float %110, ptr %118, align 4, !tbaa !85
  br label %119

119:                                              ; preds = %96, %73
  call void @llvm.lifetime.end.p0(i64 4, ptr %9) #11
  call void @llvm.lifetime.end.p0(i64 4, ptr %8) #11
  call void @llvm.lifetime.end.p0(i64 4, ptr %7) #11
  br label %120

120:                                              ; preds = %119
  %121 = load i32, ptr %6, align 4, !tbaa !81
  %122 = add nsw i32 %121, 1
  store i32 %122, ptr %6, align 4, !tbaa !81
  br label %18, !llvm.loop !122

123:                                              ; preds = %22
  call void @llvm.lifetime.end.p0(i64 4, ptr %5) #11
  ret void
}

; Function Attrs: mustprogress uwtable
define void @_ZN3DHT15illustrate_dirsEv(ptr noundef nonnull align 8 dereferenceable(56) %0) #0 align 2 {
  %2 = alloca ptr, align 8
  %3 = alloca i32, align 4
  store ptr %0, ptr %2, align 8, !tbaa !6
  %4 = load ptr, ptr %2, align 8
  call void @llvm.lifetime.start.p0(i64 4, ptr %3) #11
  store i32 0, ptr %3, align 4, !tbaa !81
  br label %5

5:                                                ; preds = %18, %1
  %6 = load i32, ptr %3, align 4, !tbaa !81
  %7 = getelementptr inbounds nuw %struct.DHT, ptr %4, i32 0, i32 5
  %8 = load ptr, ptr %7, align 8, !tbaa !13
  %9 = getelementptr inbounds nuw %class.LibRaw, ptr %8, i32 0, i32 1
  %10 = getelementptr inbounds nuw %struct.libraw_data_t, ptr %9, i32 0, i32 1
  %11 = getelementptr inbounds nuw %struct.libraw_image_sizes_t, ptr %10, i32 0, i32 6
  %12 = load i16, ptr %11, align 4, !tbaa !18
  %13 = zext i16 %12 to i32
  %14 = icmp slt i32 %6, %13
  br i1 %14, label %16, label %15

15:                                               ; preds = %5
  call void @llvm.lifetime.end.p0(i64 4, ptr %3) #11
  br label %21

16:                                               ; preds = %5
  %17 = load i32, ptr %3, align 4, !tbaa !81
  call void @_ZN3DHT16illustrate_dlineEi(ptr noundef nonnull align 8 dereferenceable(56) %4, i32 noundef %17)
  br label %18

18:                                               ; preds = %16
  %19 = load i32, ptr %3, align 4, !tbaa !81
  %20 = add nsw i32 %19, 1
  store i32 %20, ptr %3, align 4, !tbaa !81
  br label %5, !llvm.loop !121

21:                                               ; preds = %15
  ret void
}