; Function Attrs: mustprogress nofree norecurse nosync nounwind memory(readwrite, inaccessiblemem: none) uwtable
define void @_ZN3DHT15illustrate_dirsEv(ptr noundef nonnull readonly align 8 captures(none) dereferenceable(56) %0) local_unnamed_addr #4 align 2 {
  %2 = getelementptr inbounds nuw i8, ptr %0, i64 40
  %3 = load ptr, ptr %2, align 8, !tbaa !87
  %4 = getelementptr inbounds nuw i8, ptr %3, i64 28
  %5 = load i16, ptr %4, align 4, !tbaa !11
  %6 = zext i16 %5 to i32
  %.not = icmp eq i16 %5, 0
  br i1 %.not, label %._crit_edge, label %.lr.ph

.lr.ph:                                           ; preds = %1
  %7 = getelementptr inbounds nuw i8, ptr %3, i64 30
  %8 = load i16, ptr %7, align 2, !tbaa !75
  %.not22.i = icmp eq i16 %8, 0
  %9 = getelementptr inbounds nuw i8, ptr %0, i64 8
  %10 = load ptr, ptr %9, align 8
  %11 = getelementptr inbounds nuw i8, ptr %0, i64 4
  %12 = load i32, ptr %11, align 4
  %13 = getelementptr inbounds nuw i8, ptr %0, i64 48
  %14 = load ptr, ptr %13, align 8
  %15 = getelementptr inbounds nuw i8, ptr %0, i64 16
  %16 = getelementptr inbounds nuw i8, ptr %0, i64 20
  %wide.trip.count.i = zext i16 %8 to i64
  br i1 %.not22.i, label %._crit_edge, label %.lr.ph.i

._crit_edge:                                      ; preds = %_ZN3DHT16illustrate_dlineEi.exit.loopexit, %.lr.ph, %1
  ret void

.lr.ph.i:                                         ; preds = %.lr.ph, %_ZN3DHT16illustrate_dlineEi.exit.loopexit
  %.03 = phi i32 [ %39, %_ZN3DHT16illustrate_dlineEi.exit.loopexit ], [ 0, %.lr.ph ]
  %17 = add nuw nsw i32 %.03, 4
  %18 = mul nsw i32 %12, %17
  %invariant.op.i = add i32 %18, 4
  %19 = load i16, ptr %15, align 8
  %20 = lshr i16 %19, 1
  %21 = and i16 %20, 32766
  %22 = uitofp nneg i16 %21 to float
  %23 = load i16, ptr %16, align 4
  %24 = lshr i16 %23, 1
  %25 = and i16 %24, 32766
  %26 = uitofp nneg i16 %25 to float
  br label %27

27:                                               ; preds = %38, %.lr.ph.i
  %indvars.iv.i = phi i64 [ 0, %.lr.ph.i ], [ %indvars.iv.next.i, %38 ]
  %28 = trunc nuw nsw i64 %indvars.iv.i to i32
  %.reass.i = add i32 %invariant.op.i, %28
  %29 = sext i32 %.reass.i to i64
  %30 = getelementptr inbounds [3 x float], ptr %10, i64 %29, i64 2
  store float 5.000000e-01, ptr %30, align 4, !tbaa !81
  %31 = getelementptr inbounds [3 x float], ptr %10, i64 %29, i64 1
  store float 5.000000e-01, ptr %31, align 4, !tbaa !81
  %32 = getelementptr inbounds [3 x float], ptr %10, i64 %29
  store float 5.000000e-01, ptr %32, align 4, !tbaa !81
  %33 = getelementptr inbounds i8, ptr %14, i64 %29
  %34 = load i8, ptr %33, align 1, !tbaa !96
  %35 = and i8 %34, 64
  %.not.i = icmp eq i8 %35, 0
  br i1 %.not.i, label %37, label %36

36:                                               ; preds = %27
  store float %22, ptr %32, align 4, !tbaa !81
  br label %38

37:                                               ; preds = %27
  store float %26, ptr %30, align 4, !tbaa !81
  br label %38

38:                                               ; preds = %37, %36
  %indvars.iv.next.i = add nuw nsw i64 %indvars.iv.i, 1
  %exitcond.not.i = icmp eq i64 %indvars.iv.next.i, %wide.trip.count.i
  br i1 %exitcond.not.i, label %_ZN3DHT16illustrate_dlineEi.exit.loopexit, label %27, !llvm.loop !118

_ZN3DHT16illustrate_dlineEi.exit.loopexit:        ; preds = %38
  %39 = add nuw nsw i32 %.03, 1
  %exitcond.not = icmp eq i32 %39, %6
  br i1 %exitcond.not, label %._crit_edge, label %.lr.ph.i, !llvm.loop !119
}